target datalayout = "e-m:e-p270:32:32-p271:32:32-p272:64:64-i64:64-i128:128-f80:128-n8:16:32:64-S128"
target triple = "x86_64-unknown-linux-gnu"

%"class.std::basic_string_view" = type { i64, ptr }

; Function Attrs: mustprogress nounwind uwtable
define linkonce_odr hidden noundef ptr @_ZNKSt17basic_string_viewIcSt11char_traitsIcEE3endEv(ptr noundef nonnull align 8 dereferenceable(16) %this) #5 comdat align 2 {
entry:
  %this.addr = alloca ptr, align 8
  store ptr %this, ptr %this.addr, align 8
  %this1 = load ptr, ptr %this.addr, align 8
  %_M_str = getelementptr inbounds %"class.std::basic_string_view", ptr %this1, i32 0, i32 1
  %0 = load ptr, ptr %_M_str, align 8
  %_M_len = getelementptr inbounds %"class.std::basic_string_view", ptr %this1, i32 0, i32 0
  %1 = load i64, ptr %_M_len, align 8
  %add.ptr = getelementptr inbounds i8, ptr %0, i64 %1
  ret ptr %add.ptr
}

; Function Attrs: mustprogress nounwind uwtable
define linkonce_odr hidden noundef ptr @_ZNKSt17basic_string_viewIcSt11char_traitsIcEE5beginEv(ptr noundef nonnull align 8 dereferenceable(16) %this) #5 comdat align 2 {
entry:
  %this.addr = alloca ptr, align 8
  store ptr %this, ptr %this.addr, align 8
  %this1 = load ptr, ptr %this.addr, align 8
  %_M_str = getelementptr inbounds %"class.std::basic_string_view", ptr %this1, i32 0, i32 1
  %0 = load ptr, ptr %_M_str, align 8
  ret ptr %0
}

; Function Attrs: mustprogress uwtable
define noundef zeroext i1 @_ZN6google8protobuf4util13FieldMaskUtil20SnakeCaseToCamelCaseESt17basic_string_viewIcSt11char_traitsIcEEPNSt7__cxx1112basic_stringIcS5_SaIcEEE(i64 %input.coerce0, ptr %input.coerce1, ptr noundef %output) #4 align 2 {
entry:
  %retval = alloca i1, align 1
  %input = alloca %"class.std::basic_string_view", align 8
  %output.addr = alloca ptr, align 8
  %after_underscore = alloca i8, align 1
  %__range2 = alloca ptr, align 8
  %__begin2 = alloca ptr, align 8
  %__end2 = alloca ptr, align 8
  %input_char = alloca i8, align 1
  %0 = getelementptr inbounds { i64, ptr }, ptr %input, i32 0, i32 0
  store i64 %input.coerce0, ptr %0, align 8
  %1 = getelementptr inbounds { i64, ptr }, ptr %input, i32 0, i32 1
  store ptr %input.coerce1, ptr %1, align 8
  store ptr %output, ptr %output.addr, align 8
  %2 = load ptr, ptr %output.addr, align 8
  call void @_ZNSt7__cxx1112basic_stringIcSt11char_traitsIcESaIcEE5clearEv(ptr noundef nonnull align 8 dereferenceable(32) %2) #3
  store i8 0, ptr %after_underscore, align 1
  store ptr %input, ptr %__range2, align 8
  %3 = load ptr, ptr %__range2, align 8
  %call = call noundef ptr @_ZNKSt17basic_string_viewIcSt11char_traitsIcEE5beginEv(ptr noundef nonnull align 8 dereferenceable(16) %3) #3
  store ptr %call, ptr %__begin2, align 8
  %4 = load ptr, ptr %__range2, align 8
  %call1 = call noundef ptr @_ZNKSt17basic_string_viewIcSt11char_traitsIcEE3endEv(ptr noundef nonnull align 8 dereferenceable(16) %4) #3
  store ptr %call1, ptr %__end2, align 8
  br label %for.cond

for.cond:                                         ; preds = %for.inc, %entry
  %5 = load ptr, ptr %__begin2, align 8
  %6 = load ptr, ptr %__end2, align 8
  %cmp = icmp ne ptr %5, %6
  br i1 %cmp, label %for.body, label %for.end

for.body:                                         ; preds = %for.cond
  %7 = load ptr, ptr %__begin2, align 8
  %8 = load i8, ptr %7, align 1
  store i8 %8, ptr %input_char, align 1
  %9 = load i8, ptr %input_char, align 1
  %conv = sext i8 %9 to i32
  %cmp2 = icmp sge i32 %conv, 65
  br i1 %cmp2, label %land.lhs.true, label %if.end

land.lhs.true:                                    ; preds = %for.body
  %10 = load i8, ptr %input_char, align 1
  %conv3 = sext i8 %10 to i32
  %cmp4 = icmp sle i32 %conv3, 90
  br i1 %cmp4, label %if.then, label %if.end

if.then:                                          ; preds = %land.lhs.true
  store i1 false, ptr %retval, align 1
  br label %return

if.end:                                           ; preds = %land.lhs.true, %for.body
  %11 = load i8, ptr %after_underscore, align 1
  %tobool = trunc i8 %11 to i1
  br i1 %tobool, label %if.then5, label %if.else15

if.then5:                                         ; preds = %if.end
  %12 = load i8, ptr %input_char, align 1
  %conv6 = sext i8 %12 to i32
  %cmp7 = icmp sge i32 %conv6, 97
  br i1 %cmp7, label %land.lhs.true8, label %if.else

land.lhs.true8:                                   ; preds = %if.then5
  %13 = load i8, ptr %input_char, align 1
  %conv9 = sext i8 %13 to i32
  %cmp10 = icmp sle i32 %conv9, 122
  br i1 %cmp10, label %if.then11, label %if.else

if.then11:                                        ; preds = %land.lhs.true8
  %14 = load ptr, ptr %output.addr, align 8
  %15 = load i8, ptr %input_char, align 1
  %conv12 = sext i8 %15 to i32
  %add = add nsw i32 %conv12, 65
  %sub = sub nsw i32 %add, 97
  %conv13 = trunc i32 %sub to i8
  call void @_ZNSt7__cxx1112basic_stringIcSt11char_traitsIcESaIcEE9push_backEc(ptr noundef nonnull align 8 dereferenceable(32) %14, i8 noundef signext %conv13)
  store i8 0, ptr %after_underscore, align 1
  br label %if.end14

if.else:                                          ; preds = %land.lhs.true8, %if.then5
  store i1 false, ptr %retval, align 1
  br label %return

if.end14:                                         ; preds = %if.then11
  br label %if.end21

if.else15:                                        ; preds = %if.end
  %16 = load i8, ptr %input_char, align 1
  %conv16 = sext i8 %16 to i32
  %cmp17 = icmp eq i32 %conv16, 95
  br i1 %cmp17, label %if.then18, label %if.else19

if.then18:                                        ; preds = %if.else15
  store i8 1, ptr %after_underscore, align 1
  br label %if.end20

if.else19:                                        ; preds = %if.else15
  %17 = load ptr, ptr %output.addr, align 8
  %18 = load i8, ptr %input_char, align 1
  call void @_ZNSt7__cxx1112basic_stringIcSt11char_traitsIcESaIcEE9push_backEc(ptr noundef nonnull align 8 dereferenceable(32) %17, i8 noundef signext %18)
  br label %if.end20

if.end20:                                         ; preds = %if.else19, %if.then18
  br label %if.end21

if.end21:                                         ; preds = %if.end20, %if.end14
  br label %for.inc

for.inc:                                          ; preds = %if.end21
  %19 = load ptr, ptr %__begin2, align 8
  %incdec.ptr = getelementptr inbounds i8, ptr %19, i32 1
  store ptr %incdec.ptr, ptr %__begin2, align 8
  br label %for.cond

for.end:                                          ; preds = %for.cond
  %20 = load i8, ptr %after_underscore, align 1
  %tobool22 = trunc i8 %20 to i1
  br i1 %tobool22, label %if.then23, label %if.end24

if.then23:                                        ; preds = %for.end
  store i1 false, ptr %retval, align 1
  br label %return

if.end24:                                         ; preds = %for.end
  store i1 true, ptr %retval, align 1
  br label %return

return:                                           ; preds = %if.end24, %if.then23, %if.else, %if.then
  %21 = load i1, ptr %retval, align 1
  ret i1 %21
}