; Function Attrs: mustprogress uwtable
define noundef zeroext i1 @_ZN6google8protobuf4util13FieldMaskUtil20SnakeCaseToCamelCaseESt17basic_string_viewIcSt11char_traitsIcEEPNSt7__cxx1112basic_stringIcS5_SaIcEEE(i64 %input.coerce0, ptr readonly %input.coerce1, ptr noundef nonnull %output) local_unnamed_addr #3 align 2 {
entry:
  tail call void @_ZNSt7__cxx1112basic_stringIcSt11char_traitsIcESaIcEE5clearEv(ptr noundef nonnull align 8 dereferenceable(32) %output) #21
  %add.ptr.i = getelementptr inbounds i8, ptr %input.coerce1, i64 %input.coerce0
  %cmp.not17 = icmp eq i64 %input.coerce0, 0
  br i1 %cmp.not17, label %return, label %for.body

for.body:                                         ; preds = %entry, %for.inc
  %after_underscore.019 = phi i8 [ %after_underscore.1, %for.inc ], [ 0, %entry ]
  %__begin2.018 = phi ptr [ %incdec.ptr, %for.inc ], [ %input.coerce1, %entry ]
  %0 = load i8, ptr %__begin2.018, align 1
  %1 = add i8 %0, -65
  %or.cond = icmp ult i8 %1, 26
  br i1 %or.cond, label %return, label %if.end

if.end:                                           ; preds = %for.body
  %tobool = trunc nuw i8 %after_underscore.019 to i1
  br i1 %tobool, label %if.then5, label %if.else15

if.then5:                                         ; preds = %if.end
  %2 = add i8 %0, -97
  %or.cond1 = icmp ult i8 %2, 26
  br i1 %or.cond1, label %if.then11, label %return

if.then11:                                        ; preds = %if.then5
  %narrow = add nsw i8 %0, -32
  br label %for.inc.sink.split

if.else15:                                        ; preds = %if.end
  %cmp17 = icmp eq i8 %0, 95
  br i1 %cmp17, label %for.inc, label %for.inc.sink.split

for.inc.sink.split:                               ; preds = %if.else15, %if.then11
  %narrow.sink = phi i8 [ %narrow, %if.then11 ], [ %0, %if.else15 ]
  tail call void @_ZNSt7__cxx1112basic_stringIcSt11char_traitsIcESaIcEE9push_backEc(ptr noundef nonnull align 8 dereferenceable(32) %output, i8 noundef signext %narrow.sink)
  br label %for.inc

for.inc:                                          ; preds = %for.inc.sink.split, %if.else15
  %after_underscore.1 = phi i8 [ 1, %if.else15 ], [ 0, %for.inc.sink.split ]
  %incdec.ptr = getelementptr inbounds nuw i8, ptr %__begin2.018, i64 1
  %cmp.not = icmp eq ptr %incdec.ptr, %add.ptr.i
  br i1 %cmp.not, label %for.end.loopexit, label %for.body

for.end.loopexit:                                 ; preds = %for.inc
  %3 = trunc nuw i8 %after_underscore.1 to i1
  %4 = xor i1 %3, true
  br label %return

return:                                           ; preds = %if.then5, %for.body, %entry, %for.end.loopexit
  %retval.0 = phi i1 [ true, %entry ], [ %4, %for.end.loopexit ], [ false, %for.body ], [ false, %if.then5 ]
  ret i1 %retval.0
}